target datalayout = "e-m:e-p270:32:32-p271:32:32-p272:64:64-i64:64-i128:128-f80:128-n8:16:32:64-S128"
target triple = "x86_64-unknown-linux-gnu"

%"class.std::__cxx11::basic_string" = type { %"struct.std::__cxx11::basic_string<char>::_Alloc_hider", i64, %union.anon }
%"struct.std::__cxx11::basic_string<char>::_Alloc_hider" = type { ptr }
%union.anon = type { i64, [8 x i8] }
%"struct.Imf_3_2::OutputFile::Data" = type <{ %"class.Imf_3_2::Header", i8, [3 x i8], i32, i64, %"class.Imf_3_2::FrameBuffer", i32, i32, i32, i32, i32, i32, i32, [4 x i8], %"class.std::vector", %"class.std::vector", %"class.std::vector", i32, [4 x i8], %"class.std::vector.11", i64, %"class.std::vector.16", i32, [4 x i8], i64, i32, [4 x i8], ptr, i8, [7 x i8] }>
%"class.Imf_3_2::Header" = type <{ %"class.std::map", i8, [7 x i8] }>
%"class.std::map" = type { %"class.std::_Rb_tree" }
%"class.std::_Rb_tree" = type { %"struct.std::_Rb_tree<Imf_3_2::Name, std::pair<const Imf_3_2::Name, Imf_3_2::Attribute *>, std::_Select1st<std::pair<const Imf_3_2::Name, Imf_3_2::Attribute *>>, std::less<Imf_3_2::Name>>::_Rb_tree_impl" }
%"struct.std::_Rb_tree<Imf_3_2::Name, std::pair<const Imf_3_2::Name, Imf_3_2::Attribute *>, std::_Select1st<std::pair<const Imf_3_2::Name, Imf_3_2::Attribute *>>, std::less<Imf_3_2::Name>>::_Rb_tree_impl" = type { %"struct.std::_Rb_tree_key_compare", %"struct.std::_Rb_tree_header" }
%"struct.std::_Rb_tree_key_compare" = type { %"struct.std::less" }
%"struct.std::less" = type { i8 }
%"struct.std::_Rb_tree_header" = type { %"struct.std::_Rb_tree_node_base", i64 }
%"struct.std::_Rb_tree_node_base" = type { i32, ptr, ptr, ptr }
%"class.Imf_3_2::FrameBuffer" = type { %"class.std::map.3" }
%"class.std::map.3" = type { %"class.std::_Rb_tree.4" }
%"class.std::_Rb_tree.4" = type { %"struct.std::_Rb_tree<Imf_3_2::Name, std::pair<const Imf_3_2::Name, Imf_3_2::Slice>, std::_Select1st<std::pair<const Imf_3_2::Name, Imf_3_2::Slice>>, std::less<Imf_3_2::Name>>::_Rb_tree_impl" }
%"struct.std::_Rb_tree<Imf_3_2::Name, std::pair<const Imf_3_2::Name, Imf_3_2::Slice>, std::_Select1st<std::pair<const Imf_3_2::Name, Imf_3_2::Slice>>, std::less<Imf_3_2::Name>>::_Rb_tree_impl" = type { %"struct.std::_Rb_tree_key_compare", %"struct.std::_Rb_tree_header" }
%"class.std::vector" = type { %"struct.std::_Vector_base" }
%"struct.std::_Vector_base" = type { %"struct.std::_Vector_base<unsigned long, std::allocator<unsigned long>>::_Vector_impl" }
%"struct.std::_Vector_base<unsigned long, std::allocator<unsigned long>>::_Vector_impl" = type { %"struct.std::_Vector_base<unsigned long, std::allocator<unsigned long>>::_Vector_impl_data" }
%"struct.std::_Vector_base<unsigned long, std::allocator<unsigned long>>::_Vector_impl_data" = type { ptr, ptr, ptr }
%"class.std::vector.11" = type { %"struct.std::_Vector_base.12" }
%"struct.std::_Vector_base.12" = type { %"struct.std::_Vector_base<Imf_3_2::(anonymous namespace)::OutSliceInfo, std::allocator<Imf_3_2::(anonymous namespace)::OutSliceInfo>>::_Vector_impl" }
%"struct.std::_Vector_base<Imf_3_2::(anonymous namespace)::OutSliceInfo, std::allocator<Imf_3_2::(anonymous namespace)::OutSliceInfo>>::_Vector_impl" = type { %"struct.std::_Vector_base<Imf_3_2::(anonymous namespace)::OutSliceInfo, std::allocator<Imf_3_2::(anonymous namespace)::OutSliceInfo>>::_Vector_impl_data" }
%"struct.std::_Vector_base<Imf_3_2::(anonymous namespace)::OutSliceInfo, std::allocator<Imf_3_2::(anonymous namespace)::OutSliceInfo>>::_Vector_impl_data" = type { ptr, ptr, ptr }
%"class.std::vector.16" = type { %"struct.std::_Vector_base.17" }
%"struct.std::_Vector_base.17" = type { %"struct.std::_Vector_base<Imf_3_2::(anonymous namespace)::LineBuffer *, std::allocator<Imf_3_2::(anonymous namespace)::LineBuffer *>>::_Vector_impl" }
%"struct.std::_Vector_base<Imf_3_2::(anonymous namespace)::LineBuffer *, std::allocator<Imf_3_2::(anonymous namespace)::LineBuffer *>>::_Vector_impl" = type { %"struct.std::_Vector_base<Imf_3_2::(anonymous namespace)::LineBuffer *, std::allocator<Imf_3_2::(anonymous namespace)::LineBuffer *>>::_Vector_impl_data" }
%"struct.std::_Vector_base<Imf_3_2::(anonymous namespace)::LineBuffer *, std::allocator<Imf_3_2::(anonymous namespace)::LineBuffer *>>::_Vector_impl_data" = type { ptr, ptr, ptr }
%"struct.Imf_3_2::(anonymous namespace)::LineBuffer" = type { %"class.Imf_3_2::Array", ptr, i32, ptr, i32, i32, i32, i32, ptr, i8, i8, %"class.std::__cxx11::basic_string", %"class.IlmThread_3_2::Semaphore" }
%"class.Imf_3_2::Array" = type { i64, ptr }
%"class.IlmThread_3_2::Semaphore" = type { ptr, %union.sem_t }
%union.sem_t = type { i64, [24 x i8] }
%"class.Imf_3_2::(anonymous namespace)::LineBufferTask" = type { %"class.IlmThread_3_2::Task", ptr, ptr }
%"class.IlmThread_3_2::Task" = type { ptr, ptr }

; Function Attrs: mustprogress nounwind uwtable
define internal noundef nonnull align 8 dereferenceable(8) ptr @_ZNSt6vectorIPN7Imf_3_212_GLOBAL__N_110LineBufferESaIS3_EEixEm(ptr noundef nonnull align 8 dereferenceable(24) %this, i64 noundef %__n) #5 align 2 {
entry:
  %this.addr = alloca ptr, align 8
  %__n.addr = alloca i64, align 8
  store ptr %this, ptr %this.addr, align 8
  store i64 %__n, ptr %__n.addr, align 8
  %this1 = load ptr, ptr %this.addr, align 8
  %_M_impl = getelementptr inbounds %"struct.std::_Vector_base.17", ptr %this1, i32 0, i32 0
  %_M_start = getelementptr inbounds %"struct.std::_Vector_base<Imf_3_2::(anonymous namespace)::LineBuffer *, std::allocator<Imf_3_2::(anonymous namespace)::LineBuffer *>>::_Vector_impl_data", ptr %_M_impl, i32 0, i32 0
  %0 = load ptr, ptr %_M_start, align 8
  %1 = load i64, ptr %__n.addr, align 8
  %add.ptr = getelementptr inbounds ptr, ptr %0, i64 %1
  ret ptr %add.ptr
}

; Function Attrs: mustprogress nounwind uwtable
define internal noundef i64 @_ZNKSt6vectorIPN7Imf_3_212_GLOBAL__N_110LineBufferESaIS3_EE4sizeEv(ptr noundef nonnull align 8 dereferenceable(24) %this) #5 align 2 {
entry:
  %this.addr = alloca ptr, align 8
  store ptr %this, ptr %this.addr, align 8
  %this1 = load ptr, ptr %this.addr, align 8
  %_M_impl = getelementptr inbounds %"struct.std::_Vector_base.17", ptr %this1, i32 0, i32 0
  %_M_finish = getelementptr inbounds %"struct.std::_Vector_base<Imf_3_2::(anonymous namespace)::LineBuffer *, std::allocator<Imf_3_2::(anonymous namespace)::LineBuffer *>>::_Vector_impl_data", ptr %_M_impl, i32 0, i32 1
  %0 = load ptr, ptr %_M_finish, align 8
  %_M_impl2 = getelementptr inbounds %"struct.std::_Vector_base.17", ptr %this1, i32 0, i32 0
  %_M_start = getelementptr inbounds %"struct.std::_Vector_base<Imf_3_2::(anonymous namespace)::LineBuffer *, std::allocator<Imf_3_2::(anonymous namespace)::LineBuffer *>>::_Vector_impl_data", ptr %_M_impl2, i32 0, i32 0
  %1 = load ptr, ptr %_M_start, align 8
  %sub.ptr.lhs.cast = ptrtoint ptr %0 to i64
  %sub.ptr.rhs.cast = ptrtoint ptr %1 to i64
  %sub.ptr.sub = sub i64 %sub.ptr.lhs.cast, %sub.ptr.rhs.cast
  %sub.ptr.div = sdiv exact i64 %sub.ptr.sub, 8
  ret i64 %sub.ptr.div
}

; Function Attrs: mustprogress nounwind uwtable
define linkonce_odr noundef nonnull align 4 dereferenceable(4) ptr @_ZSt3maxIiERKT_S2_S2_(ptr noundef nonnull align 4 dereferenceable(4) %__a, ptr noundef nonnull align 4 dereferenceable(4) %__b) #5 comdat {
entry:
  %retval = alloca ptr, align 8
  %__a.addr = alloca ptr, align 8
  %__b.addr = alloca ptr, align 8
  store ptr %__a, ptr %__a.addr, align 8
  store ptr %__b, ptr %__b.addr, align 8
  %0 = load ptr, ptr %__a.addr, align 8
  %1 = load i32, ptr %0, align 4
  %2 = load ptr, ptr %__b.addr, align 8
  %3 = load i32, ptr %2, align 4
  %cmp = icmp slt i32 %1, %3
  br i1 %cmp, label %if.then, label %if.end

if.then:                                          ; preds = %entry
  %4 = load ptr, ptr %__b.addr, align 8
  store ptr %4, ptr %retval, align 8
  br label %return

if.end:                                           ; preds = %entry
  %5 = load ptr, ptr %__a.addr, align 8
  store ptr %5, ptr %retval, align 8
  br label %return

return:                                           ; preds = %if.end, %if.then
  %6 = load ptr, ptr %retval, align 8
  ret ptr %6
}

; Function Attrs: mustprogress nounwind uwtable
define linkonce_odr noundef nonnull align 4 dereferenceable(4) ptr @_ZSt3minIiERKT_S2_S2_(ptr noundef nonnull align 4 dereferenceable(4) %__a, ptr noundef nonnull align 4 dereferenceable(4) %__b) #5 comdat {
entry:
  %retval = alloca ptr, align 8
  %__a.addr = alloca ptr, align 8
  %__b.addr = alloca ptr, align 8
  store ptr %__a, ptr %__a.addr, align 8
  store ptr %__b, ptr %__b.addr, align 8
  %0 = load ptr, ptr %__b.addr, align 8
  %1 = load i32, ptr %0, align 4
  %2 = load ptr, ptr %__a.addr, align 8
  %3 = load i32, ptr %2, align 4
  %cmp = icmp slt i32 %1, %3
  br i1 %cmp, label %if.then, label %if.end

if.then:                                          ; preds = %entry
  %4 = load ptr, ptr %__b.addr, align 8
  store ptr %4, ptr %retval, align 8
  br label %return

if.end:                                           ; preds = %entry
  %5 = load ptr, ptr %__a.addr, align 8
  store ptr %5, ptr %retval, align 8
  br label %return

return:                                           ; preds = %if.end, %if.then
  %6 = load ptr, ptr %retval, align 8
  ret ptr %6
}

; Function Attrs: mustprogress nounwind uwtable
define linkonce_odr hidden noundef ptr @_ZN7Imf_3_25ArrayIcEcvPcEv(ptr noundef nonnull align 8 dereferenceable(16) %this) #5 comdat align 2 {
entry:
  %this.addr = alloca ptr, align 8
  store ptr %this, ptr %this.addr, align 8
  %this1 = load ptr, ptr %this.addr, align 8
  %_data = getelementptr inbounds %"class.Imf_3_2::Array", ptr %this1, i32 0, i32 1
  %0 = load ptr, ptr %_data, align 8
  ret ptr %0
}

; Function Attrs: mustprogress uwtable
define internal void @_ZN7Imf_3_212_GLOBAL__N_110LineBuffer4waitEv(ptr noundef nonnull align 8 dereferenceable(144) %this) #4 align 2 {
entry:
  %this.addr = alloca ptr, align 8
  store ptr %this, ptr %this.addr, align 8
  %this1 = load ptr, ptr %this.addr, align 8
  %_sem = getelementptr inbounds %"struct.Imf_3_2::(anonymous namespace)::LineBuffer", ptr %this1, i32 0, i32 12
  call void @_ZN13IlmThread_3_29Semaphore4waitEv(ptr noundef nonnull align 8 dereferenceable(40) %_sem)
  ret void
}

; Function Attrs: mustprogress nounwind uwtable
define internal noundef ptr @_ZN7Imf_3_210OutputFile4Data13getLineBufferEi(ptr noundef nonnull align 8 dereferenceable(321) %this, i32 noundef %number) #5 align 2 {
entry:
  %this.addr = alloca ptr, align 8
  %number.addr = alloca i32, align 4
  store ptr %this, ptr %this.addr, align 8
  store i32 %number, ptr %number.addr, align 4
  %this1 = load ptr, ptr %this.addr, align 8
  %lineBuffers = getelementptr inbounds %"struct.Imf_3_2::OutputFile::Data", ptr %this1, i32 0, i32 21
  %0 = load i32, ptr %number.addr, align 4
  %conv = sext i32 %0 to i64
  %lineBuffers2 = getelementptr inbounds %"struct.Imf_3_2::OutputFile::Data", ptr %this1, i32 0, i32 21
  %call = call noundef i64 @_ZNKSt6vectorIPN7Imf_3_212_GLOBAL__N_110LineBufferESaIS3_EE4sizeEv(ptr noundef nonnull align 8 dereferenceable(24) %lineBuffers2) #3
  %rem = urem i64 %conv, %call
  %call3 = call noundef nonnull align 8 dereferenceable(8) ptr @_ZNSt6vectorIPN7Imf_3_212_GLOBAL__N_110LineBufferESaIS3_EEixEm(ptr noundef nonnull align 8 dereferenceable(24) %lineBuffers, i64 noundef %rem) #3
  %1 = load ptr, ptr %call3, align 8
  ret ptr %1
}

; Function Attrs: mustprogress uwtable
define internal void @_ZN7Imf_3_212_GLOBAL__N_114LineBufferTaskC2EPN13IlmThread_3_29TaskGroupEPNS_10OutputFile4DataEiii(ptr noundef nonnull align 8 dereferenceable(32) %this, ptr noundef %group, ptr noundef %ofd, i32 noundef %number, i32 noundef %scanLineMin, i32 noundef %scanLineMax) unnamed_addr #4 align 2 personality ptr @__gxx_personality_v0 {
entry:
  %this.addr = alloca ptr, align 8
  %group.addr = alloca ptr, align 8
  %ofd.addr = alloca ptr, align 8
  %number.addr = alloca i32, align 4
  %scanLineMin.addr = alloca i32, align 4
  %scanLineMax.addr = alloca i32, align 4
  %exn.slot = alloca ptr, align 8
  %ehselector.slot = alloca i32, align 4
  %ref.tmp = alloca i32, align 4
  store ptr %this, ptr %this.addr, align 8
  store ptr %group, ptr %group.addr, align 8
  store ptr %ofd, ptr %ofd.addr, align 8
  store i32 %number, ptr %number.addr, align 4
  store i32 %scanLineMin, ptr %scanLineMin.addr, align 4
  store i32 %scanLineMax, ptr %scanLineMax.addr, align 4
  %this1 = load ptr, ptr %this.addr, align 8
  %0 = load ptr, ptr %group.addr, align 8
  call void @_ZN13IlmThread_3_24TaskC2EPNS_9TaskGroupE(ptr noundef nonnull align 8 dereferenceable(16) %this1, ptr noundef %0)
  store ptr getelementptr inbounds ({ [5 x ptr] }, ptr @_ZTVN7Imf_3_212_GLOBAL__N_114LineBufferTaskE, i32 0, i32 0, i32 2), ptr %this1, align 8
  %_ofd = getelementptr inbounds %"class.Imf_3_2::(anonymous namespace)::LineBufferTask", ptr %this1, i32 0, i32 1
  %1 = load ptr, ptr %ofd.addr, align 8
  store ptr %1, ptr %_ofd, align 8
  %_lineBuffer = getelementptr inbounds %"class.Imf_3_2::(anonymous namespace)::LineBufferTask", ptr %this1, i32 0, i32 2
  %_ofd2 = getelementptr inbounds %"class.Imf_3_2::(anonymous namespace)::LineBufferTask", ptr %this1, i32 0, i32 1
  %2 = load ptr, ptr %_ofd2, align 8
  %3 = load i32, ptr %number.addr, align 4
  %call = invoke noundef ptr @_ZN7Imf_3_210OutputFile4Data13getLineBufferEi(ptr noundef nonnull align 8 dereferenceable(321) %2, i32 noundef %3)
          to label %invoke.cont unwind label %lpad

invoke.cont:                                      ; preds = %entry
  store ptr %call, ptr %_lineBuffer, align 8
  %_lineBuffer3 = getelementptr inbounds %"class.Imf_3_2::(anonymous namespace)::LineBufferTask", ptr %this1, i32 0, i32 2
  %4 = load ptr, ptr %_lineBuffer3, align 8
  invoke void @_ZN7Imf_3_212_GLOBAL__N_110LineBuffer4waitEv(ptr noundef nonnull align 8 dereferenceable(144) %4)
          to label %invoke.cont4 unwind label %lpad

invoke.cont4:                                     ; preds = %invoke.cont
  %_lineBuffer5 = getelementptr inbounds %"class.Imf_3_2::(anonymous namespace)::LineBufferTask", ptr %this1, i32 0, i32 2
  %5 = load ptr, ptr %_lineBuffer5, align 8
  %partiallyFull = getelementptr inbounds %"struct.Imf_3_2::(anonymous namespace)::LineBuffer", ptr %5, i32 0, i32 9
  %6 = load i8, ptr %partiallyFull, align 8
  %tobool = trunc i8 %6 to i1
  br i1 %tobool, label %if.end, label %if.then

if.then:                                          ; preds = %invoke.cont4
  %_lineBuffer6 = getelementptr inbounds %"class.Imf_3_2::(anonymous namespace)::LineBufferTask", ptr %this1, i32 0, i32 2
  %7 = load ptr, ptr %_lineBuffer6, align 8
  %buffer = getelementptr inbounds %"struct.Imf_3_2::(anonymous namespace)::LineBuffer", ptr %7, i32 0, i32 0
  %call8 = invoke noundef ptr @_ZN7Imf_3_25ArrayIcEcvPcEv(ptr noundef nonnull align 8 dereferenceable(16) %buffer)
          to label %invoke.cont7 unwind label %lpad

invoke.cont7:                                     ; preds = %if.then
  %_lineBuffer9 = getelementptr inbounds %"class.Imf_3_2::(anonymous namespace)::LineBufferTask", ptr %this1, i32 0, i32 2
  %8 = load ptr, ptr %_lineBuffer9, align 8
  %endOfLineBufferData = getelementptr inbounds %"struct.Imf_3_2::(anonymous namespace)::LineBuffer", ptr %8, i32 0, i32 3
  store ptr %call8, ptr %endOfLineBufferData, align 8
  %_ofd10 = getelementptr inbounds %"class.Imf_3_2::(anonymous namespace)::LineBufferTask", ptr %this1, i32 0, i32 1
  %9 = load ptr, ptr %_ofd10, align 8
  %minY = getelementptr inbounds %"struct.Imf_3_2::OutputFile::Data", ptr %9, i32 0, i32 11
  %10 = load i32, ptr %minY, align 4
  %11 = load i32, ptr %number.addr, align 4
  %_ofd11 = getelementptr inbounds %"class.Imf_3_2::(anonymous namespace)::LineBufferTask", ptr %this1, i32 0, i32 1
  %12 = load ptr, ptr %_ofd11, align 8
  %linesInBuffer = getelementptr inbounds %"struct.Imf_3_2::OutputFile::Data", ptr %12, i32 0, i32 22
  %13 = load i32, ptr %linesInBuffer, align 8
  %mul = mul nsw i32 %11, %13
  %add = add nsw i32 %10, %mul
  %_lineBuffer12 = getelementptr inbounds %"class.Imf_3_2::(anonymous namespace)::LineBufferTask", ptr %this1, i32 0, i32 2
  %14 = load ptr, ptr %_lineBuffer12, align 8
  %minY13 = getelementptr inbounds %"struct.Imf_3_2::(anonymous namespace)::LineBuffer", ptr %14, i32 0, i32 4
  store i32 %add, ptr %minY13, align 8
  %_lineBuffer14 = getelementptr inbounds %"class.Imf_3_2::(anonymous namespace)::LineBufferTask", ptr %this1, i32 0, i32 2
  %15 = load ptr, ptr %_lineBuffer14, align 8
  %minY15 = getelementptr inbounds %"struct.Imf_3_2::(anonymous namespace)::LineBuffer", ptr %15, i32 0, i32 4
  %16 = load i32, ptr %minY15, align 8
  %_ofd16 = getelementptr inbounds %"class.Imf_3_2::(anonymous namespace)::LineBufferTask", ptr %this1, i32 0, i32 1
  %17 = load ptr, ptr %_ofd16, align 8
  %linesInBuffer17 = getelementptr inbounds %"struct.Imf_3_2::OutputFile::Data", ptr %17, i32 0, i32 22
  %18 = load i32, ptr %linesInBuffer17, align 8
  %add18 = add nsw i32 %16, %18
  %sub = sub nsw i32 %add18, 1
  store i32 %sub, ptr %ref.tmp, align 4
  %_ofd19 = getelementptr inbounds %"class.Imf_3_2::(anonymous namespace)::LineBufferTask", ptr %this1, i32 0, i32 1
  %19 = load ptr, ptr %_ofd19, align 8
  %maxY = getelementptr inbounds %"struct.Imf_3_2::OutputFile::Data", ptr %19, i32 0, i32 12
  %call20 = call noundef nonnull align 4 dereferenceable(4) ptr @_ZSt3minIiERKT_S2_S2_(ptr noundef nonnull align 4 dereferenceable(4) %ref.tmp, ptr noundef nonnull align 4 dereferenceable(4) %maxY)
  %20 = load i32, ptr %call20, align 4
  %_lineBuffer21 = getelementptr inbounds %"class.Imf_3_2::(anonymous namespace)::LineBufferTask", ptr %this1, i32 0, i32 2
  %21 = load ptr, ptr %_lineBuffer21, align 8
  %maxY22 = getelementptr inbounds %"struct.Imf_3_2::(anonymous namespace)::LineBuffer", ptr %21, i32 0, i32 5
  store i32 %20, ptr %maxY22, align 4
  %_lineBuffer23 = getelementptr inbounds %"class.Imf_3_2::(anonymous namespace)::LineBufferTask", ptr %this1, i32 0, i32 2
  %22 = load ptr, ptr %_lineBuffer23, align 8
  %partiallyFull24 = getelementptr inbounds %"struct.Imf_3_2::(anonymous namespace)::LineBuffer", ptr %22, i32 0, i32 9
  store i8 1, ptr %partiallyFull24, align 8
  br label %if.end

lpad:                                             ; preds = %if.then, %invoke.cont, %entry
  %23 = landingpad { ptr, i32 }
          cleanup
  %24 = extractvalue { ptr, i32 } %23, 0
  store ptr %24, ptr %exn.slot, align 8
  %25 = extractvalue { ptr, i32 } %23, 1
  store i32 %25, ptr %ehselector.slot, align 4
  call void @_ZN13IlmThread_3_24TaskD2Ev(ptr noundef nonnull align 8 dereferenceable(16) %this1) #3
  br label %eh.resume

if.end:                                           ; preds = %invoke.cont7, %invoke.cont4
  %_lineBuffer25 = getelementptr inbounds %"class.Imf_3_2::(anonymous namespace)::LineBufferTask", ptr %this1, i32 0, i32 2
  %26 = load ptr, ptr %_lineBuffer25, align 8
  %minY26 = getelementptr inbounds %"struct.Imf_3_2::(anonymous namespace)::LineBuffer", ptr %26, i32 0, i32 4
  %call27 = call noundef nonnull align 4 dereferenceable(4) ptr @_ZSt3maxIiERKT_S2_S2_(ptr noundef nonnull align 4 dereferenceable(4) %minY26, ptr noundef nonnull align 4 dereferenceable(4) %scanLineMin.addr)
  %27 = load i32, ptr %call27, align 4
  %_lineBuffer28 = getelementptr inbounds %"class.Imf_3_2::(anonymous namespace)::LineBufferTask", ptr %this1, i32 0, i32 2
  %28 = load ptr, ptr %_lineBuffer28, align 8
  %scanLineMin29 = getelementptr inbounds %"struct.Imf_3_2::(anonymous namespace)::LineBuffer", ptr %28, i32 0, i32 6
  store i32 %27, ptr %scanLineMin29, align 8
  %_lineBuffer30 = getelementptr inbounds %"class.Imf_3_2::(anonymous namespace)::LineBufferTask", ptr %this1, i32 0, i32 2
  %29 = load ptr, ptr %_lineBuffer30, align 8
  %maxY31 = getelementptr inbounds %"struct.Imf_3_2::(anonymous namespace)::LineBuffer", ptr %29, i32 0, i32 5
  %call32 = call noundef nonnull align 4 dereferenceable(4) ptr @_ZSt3minIiERKT_S2_S2_(ptr noundef nonnull align 4 dereferenceable(4) %maxY31, ptr noundef nonnull align 4 dereferenceable(4) %scanLineMax.addr)
  %30 = load i32, ptr %call32, align 4
  %_lineBuffer33 = getelementptr inbounds %"class.Imf_3_2::(anonymous namespace)::LineBufferTask", ptr %this1, i32 0, i32 2
  %31 = load ptr, ptr %_lineBuffer33, align 8
  %scanLineMax34 = getelementptr inbounds %"struct.Imf_3_2::(anonymous namespace)::LineBuffer", ptr %31, i32 0, i32 7
  store i32 %30, ptr %scanLineMax34, align 4
  ret void

eh.resume:                                        ; preds = %lpad
  %exn = load ptr, ptr %exn.slot, align 8
  %sel = load i32, ptr %ehselector.slot, align 4
  %lpad.val = insertvalue { ptr, i32 } poison, ptr %exn, 0
  %lpad.val35 = insertvalue { ptr, i32 } %lpad.val, i32 %sel, 1
  resume { ptr, i32 } %lpad.val35
}