; Function Attrs: mustprogress uwtable
define internal fastcc void @_ZN7Imf_3_212_GLOBAL__N_114LineBufferTaskC2EPN13IlmThread_3_29TaskGroupEPNS_10OutputFile4DataEiii(ptr noundef nonnull align 8 dereferenceable(32) %this, ptr noundef %group, ptr noundef %ofd, i32 noundef %number, i32 noundef %scanLineMin, i32 noundef %scanLineMax) unnamed_addr #3 align 2 personality ptr @__gxx_personality_v0 {
entry:
  tail call void @_ZN13IlmThread_3_24TaskC2EPNS_9TaskGroupE(ptr noundef nonnull align 8 dereferenceable(16) %this, ptr noundef %group)
  store ptr getelementptr inbounds ({ [5 x ptr] }, ptr @_ZTVN7Imf_3_212_GLOBAL__N_114LineBufferTaskE, i64 0, i32 0, i64 2), ptr %this, align 8
  %_ofd = getelementptr inbounds i8, ptr %this, i64 16
  store ptr %ofd, ptr %_ofd, align 8
  %_lineBuffer = getelementptr inbounds i8, ptr %this, i64 24
  %0 = getelementptr i8, ptr %ofd, i64 264
  %ofd.val = load ptr, ptr %0, align 8
  %1 = getelementptr i8, ptr %ofd, i64 272
  %ofd.val2 = load ptr, ptr %1, align 8
  %conv.i = sext i32 %number to i64
  %sub.ptr.lhs.cast.i.i = ptrtoint ptr %ofd.val2 to i64
  %sub.ptr.rhs.cast.i.i = ptrtoint ptr %ofd.val to i64
  %sub.ptr.sub.i.i = sub i64 %sub.ptr.lhs.cast.i.i, %sub.ptr.rhs.cast.i.i
  %sub.ptr.div.i.i = ashr exact i64 %sub.ptr.sub.i.i, 3
  %rem.i = urem i64 %conv.i, %sub.ptr.div.i.i
  %add.ptr.i.i = getelementptr inbounds ptr, ptr %ofd.val, i64 %rem.i
  %2 = load ptr, ptr %add.ptr.i.i, align 8
  store ptr %2, ptr %_lineBuffer, align 8
  %_sem.i = getelementptr inbounds i8, ptr %2, i64 104
  invoke void @_ZN13IlmThread_3_29Semaphore4waitEv(ptr noundef nonnull align 8 dereferenceable(40) %_sem.i)
          to label %invoke.cont4 unwind label %lpad

invoke.cont4:                                     ; preds = %entry
  %3 = load ptr, ptr %_lineBuffer, align 8
  %partiallyFull = getelementptr inbounds i8, ptr %3, i64 64
  %4 = load i8, ptr %partiallyFull, align 8
  %5 = and i8 %4, 1
  %tobool.not = icmp eq i8 %5, 0
  br i1 %tobool.not, label %if.then, label %if.end

if.then:                                          ; preds = %invoke.cont4
  %_data.i = getelementptr inbounds i8, ptr %3, i64 8
  %6 = load ptr, ptr %_data.i, align 8
  %endOfLineBufferData = getelementptr inbounds i8, ptr %3, i64 32
  store ptr %6, ptr %endOfLineBufferData, align 8
  %7 = load ptr, ptr %_ofd, align 8
  %minY = getelementptr inbounds i8, ptr %7, i64 140
  %8 = load i32, ptr %minY, align 4
  %linesInBuffer = getelementptr inbounds i8, ptr %7, i64 288
  %9 = load i32, ptr %linesInBuffer, align 8
  %mul = mul nsw i32 %9, %number
  %add = add nsw i32 %mul, %8
  %10 = load ptr, ptr %_lineBuffer, align 8
  %minY13 = getelementptr inbounds i8, ptr %10, i64 40
  store i32 %add, ptr %minY13, align 8
  %11 = load ptr, ptr %_lineBuffer, align 8
  %minY15 = getelementptr inbounds i8, ptr %11, i64 40
  %12 = load i32, ptr %minY15, align 8
  %13 = load ptr, ptr %_ofd, align 8
  %linesInBuffer17 = getelementptr inbounds i8, ptr %13, i64 288
  %14 = load i32, ptr %linesInBuffer17, align 8
  %add18 = add i32 %12, -1
  %sub = add i32 %add18, %14
  %maxY = getelementptr inbounds i8, ptr %13, i64 144
  %15 = load i32, ptr %maxY, align 4
  %.sroa.speculated = tail call i32 @llvm.smin.i32(i32 %15, i32 %sub)
  %maxY22 = getelementptr inbounds i8, ptr %11, i64 44
  store i32 %.sroa.speculated, ptr %maxY22, align 4
  %16 = load ptr, ptr %_lineBuffer, align 8
  %partiallyFull24 = getelementptr inbounds i8, ptr %16, i64 64
  store i8 1, ptr %partiallyFull24, align 8
  %.pre = load ptr, ptr %_lineBuffer, align 8
  br label %if.end

lpad:                                             ; preds = %entry
  %17 = landingpad { ptr, i32 }
          cleanup
  tail call void @_ZN13IlmThread_3_24TaskD2Ev(ptr noundef nonnull align 8 dereferenceable(16) %this) #21
  resume { ptr, i32 } %17

if.end:                                           ; preds = %if.then, %invoke.cont4
  %18 = phi ptr [ %.pre, %if.then ], [ %3, %invoke.cont4 ]
  %minY26 = getelementptr inbounds i8, ptr %18, i64 40
  %19 = load i32, ptr %minY26, align 4
  %.sroa.speculated13 = tail call i32 @llvm.smax.i32(i32 %19, i32 %scanLineMin)
  %scanLineMin29 = getelementptr inbounds i8, ptr %18, i64 48
  store i32 %.sroa.speculated13, ptr %scanLineMin29, align 8
  %20 = load ptr, ptr %_lineBuffer, align 8
  %maxY31 = getelementptr inbounds i8, ptr %20, i64 44
  %21 = load i32, ptr %maxY31, align 4
  %.sroa.speculated9 = tail call i32 @llvm.smin.i32(i32 %21, i32 %scanLineMax)
  %scanLineMax34 = getelementptr inbounds i8, ptr %20, i64 52
  store i32 %.sroa.speculated9, ptr %scanLineMax34, align 4
  ret void
}